
Sensormodul.elf:     file format elf32-avr

Sections:
Idx Name          Size      VMA       LMA       File off  Algn
  0 .data         00000006  00800100  000006ae  00000742  2**0
                  CONTENTS, ALLOC, LOAD, DATA
  1 .text         000006ae  00000000  00000000  00000094  2**1
                  CONTENTS, ALLOC, LOAD, READONLY, CODE
  2 .bss          00000113  00800106  00800106  00000748  2**0
                  ALLOC
  3 .comment      00000030  00000000  00000000  00000748  2**0
                  CONTENTS, READONLY
  4 .debug_aranges 000001c8  00000000  00000000  00000778  2**0
                  CONTENTS, READONLY, DEBUGGING
  5 .debug_info   00001b9e  00000000  00000000  00000940  2**0
                  CONTENTS, READONLY, DEBUGGING
  6 .debug_abbrev 00000b48  00000000  00000000  000024de  2**0
                  CONTENTS, READONLY, DEBUGGING
  7 .debug_line   00001031  00000000  00000000  00003026  2**0
                  CONTENTS, READONLY, DEBUGGING
  8 .debug_frame  000004ec  00000000  00000000  00004058  2**2
                  CONTENTS, READONLY, DEBUGGING
  9 .debug_str    000004cf  00000000  00000000  00004544  2**0
                  CONTENTS, READONLY, DEBUGGING
 10 .debug_loc    00001200  00000000  00000000  00004a13  2**0
                  CONTENTS, READONLY, DEBUGGING
 11 .debug_ranges 00000180  00000000  00000000  00005c13  2**0
                  CONTENTS, READONLY, DEBUGGING

Disassembly of section .text:

00000000 <__vectors>:
   0:	45 c0       	rjmp	.+138    	; 0x8c <__ctors_end>
   2:	00 00       	nop
   4:	60 c0       	rjmp	.+192    	; 0xc6 <__bad_interrupt>
   6:	00 00       	nop
   8:	5e c0       	rjmp	.+188    	; 0xc6 <__bad_interrupt>
   a:	00 00       	nop
   c:	5c c0       	rjmp	.+184    	; 0xc6 <__bad_interrupt>
   e:	00 00       	nop
  10:	5a c0       	rjmp	.+180    	; 0xc6 <__bad_interrupt>
  12:	00 00       	nop
  14:	58 c0       	rjmp	.+176    	; 0xc6 <__bad_interrupt>
  16:	00 00       	nop
  18:	56 c0       	rjmp	.+172    	; 0xc6 <__bad_interrupt>
  1a:	00 00       	nop
  1c:	54 c0       	rjmp	.+168    	; 0xc6 <__bad_interrupt>
  1e:	00 00       	nop
  20:	52 c0       	rjmp	.+164    	; 0xc6 <__bad_interrupt>
  22:	00 00       	nop
  24:	50 c0       	rjmp	.+160    	; 0xc6 <__bad_interrupt>
  26:	00 00       	nop
  28:	4e c0       	rjmp	.+156    	; 0xc6 <__bad_interrupt>
  2a:	00 00       	nop
  2c:	4c c0       	rjmp	.+152    	; 0xc6 <__bad_interrupt>
  2e:	00 00       	nop
  30:	4a c0       	rjmp	.+148    	; 0xc6 <__bad_interrupt>
  32:	00 00       	nop
  34:	48 c0       	rjmp	.+144    	; 0xc6 <__bad_interrupt>
  36:	00 00       	nop
  38:	46 c0       	rjmp	.+140    	; 0xc6 <__bad_interrupt>
  3a:	00 00       	nop
  3c:	44 c0       	rjmp	.+136    	; 0xc6 <__bad_interrupt>
  3e:	00 00       	nop
  40:	42 c0       	rjmp	.+132    	; 0xc6 <__bad_interrupt>
  42:	00 00       	nop
  44:	40 c0       	rjmp	.+128    	; 0xc6 <__bad_interrupt>
  46:	00 00       	nop
  48:	3e c0       	rjmp	.+124    	; 0xc6 <__bad_interrupt>
  4a:	00 00       	nop
  4c:	3c c0       	rjmp	.+120    	; 0xc6 <__bad_interrupt>
  4e:	00 00       	nop
  50:	3d c2       	rjmp	.+1146   	; 0x4cc <__vector_20>
  52:	00 00       	nop
  54:	38 c0       	rjmp	.+112    	; 0xc6 <__bad_interrupt>
  56:	00 00       	nop
  58:	36 c0       	rjmp	.+108    	; 0xc6 <__bad_interrupt>
  5a:	00 00       	nop
  5c:	34 c0       	rjmp	.+104    	; 0xc6 <__bad_interrupt>
  5e:	00 00       	nop
  60:	32 c0       	rjmp	.+100    	; 0xc6 <__bad_interrupt>
  62:	00 00       	nop
  64:	30 c0       	rjmp	.+96     	; 0xc6 <__bad_interrupt>
  66:	00 00       	nop
  68:	2e c0       	rjmp	.+92     	; 0xc6 <__bad_interrupt>
  6a:	00 00       	nop
  6c:	2c c0       	rjmp	.+88     	; 0xc6 <__bad_interrupt>
  6e:	00 00       	nop
  70:	2a c0       	rjmp	.+84     	; 0xc6 <__bad_interrupt>
  72:	00 00       	nop
  74:	28 c0       	rjmp	.+80     	; 0xc6 <__bad_interrupt>
  76:	00 00       	nop
  78:	26 c0       	rjmp	.+76     	; 0xc6 <__bad_interrupt>
  7a:	00 00       	nop
  7c:	24 c0       	rjmp	.+72     	; 0xc6 <__bad_interrupt>
  7e:	00 00       	nop
  80:	22 c0       	rjmp	.+68     	; 0xc6 <__bad_interrupt>
  82:	00 00       	nop
  84:	20 c0       	rjmp	.+64     	; 0xc6 <__bad_interrupt>
  86:	00 00       	nop
  88:	1e c0       	rjmp	.+60     	; 0xc6 <__bad_interrupt>
	...

0000008c <__ctors_end>:
  8c:	11 24       	eor	r1, r1
  8e:	1f be       	out	0x3f, r1	; 63
  90:	cf ef       	ldi	r28, 0xFF	; 255
  92:	d0 e4       	ldi	r29, 0x40	; 64
  94:	de bf       	out	0x3e, r29	; 62
  96:	cd bf       	out	0x3d, r28	; 61

00000098 <__do_copy_data>:
  98:	11 e0       	ldi	r17, 0x01	; 1
  9a:	a0 e0       	ldi	r26, 0x00	; 0
  9c:	b1 e0       	ldi	r27, 0x01	; 1
  9e:	ee ea       	ldi	r30, 0xAE	; 174
  a0:	f6 e0       	ldi	r31, 0x06	; 6
  a2:	00 e0       	ldi	r16, 0x00	; 0
  a4:	0b bf       	out	0x3b, r16	; 59
  a6:	02 c0       	rjmp	.+4      	; 0xac <__do_copy_data+0x14>
  a8:	07 90       	elpm	r0, Z+
  aa:	0d 92       	st	X+, r0
  ac:	a6 30       	cpi	r26, 0x06	; 6
  ae:	b1 07       	cpc	r27, r17
  b0:	d9 f7       	brne	.-10     	; 0xa8 <__do_copy_data+0x10>

000000b2 <__do_clear_bss>:
  b2:	22 e0       	ldi	r18, 0x02	; 2
  b4:	a6 e0       	ldi	r26, 0x06	; 6
  b6:	b1 e0       	ldi	r27, 0x01	; 1
  b8:	01 c0       	rjmp	.+2      	; 0xbc <.do_clear_bss_start>

000000ba <.do_clear_bss_loop>:
  ba:	1d 92       	st	X+, r1

000000bc <.do_clear_bss_start>:
  bc:	a9 31       	cpi	r26, 0x19	; 25
  be:	b2 07       	cpc	r27, r18
  c0:	e1 f7       	brne	.-8      	; 0xba <.do_clear_bss_loop>
  c2:	f3 d0       	rcall	.+486    	; 0x2aa <main>
  c4:	f2 c2       	rjmp	.+1508   	; 0x6aa <_exit>

000000c6 <__bad_interrupt>:
  c6:	9c cf       	rjmp	.-200    	; 0x0 <__vectors>

000000c8 <toggle_enable>:
	//toggle_enable();
}

void toggle_enable()
{
	PORTB |= (1 << DISP_E);
  c8:	2a 9a       	sbi	0x05, 2	; 5
	#else
		//round up by default
		__ticks_dc = (uint32_t)(ceil(fabs(__tmp)));
	#endif

	__builtin_avr_delay_cycles(__ticks_dc);
  ca:	8f e1       	ldi	r24, 0x1F	; 31
  cc:	9e e4       	ldi	r25, 0x4E	; 78
  ce:	01 97       	sbiw	r24, 0x01	; 1
  d0:	f1 f7       	brne	.-4      	; 0xce <toggle_enable+0x6>
  d2:	00 c0       	rjmp	.+0      	; 0xd4 <toggle_enable+0xc>
  d4:	00 00       	nop
	//wait(20);
	_delay_ms(10);
	PORTB &= ~(1 << DISP_E);
  d6:	2a 98       	cbi	0x05, 2	; 5
  d8:	8f e1       	ldi	r24, 0x1F	; 31
  da:	9e e4       	ldi	r25, 0x4E	; 78
  dc:	01 97       	sbiw	r24, 0x01	; 1
  de:	f1 f7       	brne	.-4      	; 0xdc <toggle_enable+0x14>
  e0:	00 c0       	rjmp	.+0      	; 0xe2 <toggle_enable+0x1a>
  e2:	00 00       	nop
  e4:	08 95       	ret

000000e6 <set_display>:
	//wait(20);
	_delay_ms(10);
}

void set_display(int mode, int instr)
{	
  e6:	0f 93       	push	r16
  e8:	1f 93       	push	r17
  ea:	cf 93       	push	r28
  ec:	df 93       	push	r29
	PORTB &= ~(1 << DISP_RS);
  ee:	28 98       	cbi	0x05, 0	; 5
	PORTB &= ~(1 << DISP_RW);
  f0:	29 98       	cbi	0x05, 1	; 5
	PORTC &= ~(1 << DISP_DB7);
  f2:	41 98       	cbi	0x08, 1	; 8
	PORTC &= ~(1 << DISP_DB6);
  f4:	40 98       	cbi	0x08, 0	; 8
	PORTD &= ~(1 << DISP_DB5);
  f6:	5f 98       	cbi	0x0b, 7	; 11
	PORTD &= ~(1 << DISP_DB4);
  f8:	5e 98       	cbi	0x0b, 6	; 11
	PORTD &= ~(1 << DISP_DB3);
  fa:	5d 98       	cbi	0x0b, 5	; 11
	PORTD &= ~(1 << DISP_DB2);
  fc:	5c 98       	cbi	0x0b, 4	; 11
	PORTD &= ~(1 << DISP_DB1);
  fe:	5b 98       	cbi	0x0b, 3	; 11
	PORTD &= ~(1 << DISP_DB0);
 100:	5a 98       	cbi	0x0b, 2	; 11
	
	PORTB |= (((mode >> 1) & 1) << DISP_RS);
 102:	15 b1       	in	r17, 0x05	; 5
 104:	81 fb       	bst	r24, 1
 106:	00 27       	eor	r16, r16
 108:	00 f9       	bld	r16, 0
 10a:	10 2b       	or	r17, r16
 10c:	15 b9       	out	0x05, r17	; 5
	PORTB |= (((mode >> 0) & 1) << DISP_RW);
 10e:	15 b1       	in	r17, 0x05	; 5
 110:	81 70       	andi	r24, 0x01	; 1
 112:	99 27       	eor	r25, r25
 114:	88 0f       	add	r24, r24
 116:	99 1f       	adc	r25, r25
 118:	81 2b       	or	r24, r17
 11a:	85 b9       	out	0x05, r24	; 5
 11c:	8f e1       	ldi	r24, 0x1F	; 31
 11e:	9e e4       	ldi	r25, 0x4E	; 78
 120:	01 97       	sbiw	r24, 0x01	; 1
 122:	f1 f7       	brne	.-4      	; 0x120 <set_display+0x3a>
 124:	00 c0       	rjmp	.+0      	; 0x126 <set_display+0x40>
 126:	00 00       	nop
	_delay_us(150);
	*/
	
	_delay_ms(10);
	
	PORTC |= (((instr >> 7) & 1) << DISP_DB7);
 128:	88 b1       	in	r24, 0x08	; 8
 12a:	67 fb       	bst	r22, 7
 12c:	99 27       	eor	r25, r25
 12e:	90 f9       	bld	r25, 0
 130:	c9 2f       	mov	r28, r25
 132:	90 e0       	ldi	r25, 0x00	; 0
 134:	d9 2f       	mov	r29, r25
 136:	cc 0f       	add	r28, r28
 138:	dd 1f       	adc	r29, r29
 13a:	c8 2b       	or	r28, r24
 13c:	c8 b9       	out	0x08, r28	; 8
	PORTC |= (((instr >> 6) & 1) << DISP_DB6);
 13e:	88 b1       	in	r24, 0x08	; 8
 140:	66 fb       	bst	r22, 6
 142:	99 27       	eor	r25, r25
 144:	90 f9       	bld	r25, 0
 146:	89 2b       	or	r24, r25
 148:	88 b9       	out	0x08, r24	; 8
	PORTD |= (((instr >> 5) & 1) << DISP_DB5);
 14a:	1b b1       	in	r17, 0x0b	; 11
 14c:	eb 01       	movw	r28, r22
 14e:	d5 95       	asr	r29
 150:	c7 95       	ror	r28
 152:	d5 95       	asr	r29
 154:	c7 95       	ror	r28
 156:	d5 95       	asr	r29
 158:	c7 95       	ror	r28
 15a:	d5 95       	asr	r29
 15c:	c7 95       	ror	r28
 15e:	d5 95       	asr	r29
 160:	c7 95       	ror	r28
 162:	ce 01       	movw	r24, r28
 164:	96 95       	lsr	r25
 166:	98 2f       	mov	r25, r24
 168:	88 27       	eor	r24, r24
 16a:	97 95       	ror	r25
 16c:	87 95       	ror	r24
 16e:	81 2b       	or	r24, r17
 170:	8b b9       	out	0x0b, r24	; 11
	PORTD |= (((instr >> 4) & 1) << DISP_DB4);
 172:	8b b1       	in	r24, 0x0b	; 11
 174:	64 fb       	bst	r22, 4
 176:	aa 27       	eor	r26, r26
 178:	a0 f9       	bld	r26, 0
 17a:	b0 e0       	ldi	r27, 0x00	; 0
 17c:	00 24       	eor	r0, r0
 17e:	b6 95       	lsr	r27
 180:	a7 95       	ror	r26
 182:	07 94       	ror	r0
 184:	b6 95       	lsr	r27
 186:	a7 95       	ror	r26
 188:	07 94       	ror	r0
 18a:	ba 2f       	mov	r27, r26
 18c:	a0 2d       	mov	r26, r0
 18e:	a8 2b       	or	r26, r24
 190:	ab b9       	out	0x0b, r26	; 11
	PORTD |= (((instr >> 3) & 1) << DISP_DB3);
 192:	8b b1       	in	r24, 0x0b	; 11
 194:	63 fb       	bst	r22, 3
 196:	ee 27       	eor	r30, r30
 198:	e0 f9       	bld	r30, 0
 19a:	f0 e0       	ldi	r31, 0x00	; 0
 19c:	ee 0f       	add	r30, r30
 19e:	ff 1f       	adc	r31, r31
 1a0:	e2 95       	swap	r30
 1a2:	f2 95       	swap	r31
 1a4:	f0 7f       	andi	r31, 0xF0	; 240
 1a6:	fe 27       	eor	r31, r30
 1a8:	e0 7f       	andi	r30, 0xF0	; 240
 1aa:	fe 27       	eor	r31, r30
 1ac:	e8 2b       	or	r30, r24
 1ae:	eb b9       	out	0x0b, r30	; 11
	PORTD |= (((instr >> 2) & 1) << DISP_DB2);
 1b0:	8b b1       	in	r24, 0x0b	; 11
 1b2:	62 fb       	bst	r22, 2
 1b4:	44 27       	eor	r20, r20
 1b6:	40 f9       	bld	r20, 0
 1b8:	50 e0       	ldi	r21, 0x00	; 0
 1ba:	42 95       	swap	r20
 1bc:	52 95       	swap	r21
 1be:	50 7f       	andi	r21, 0xF0	; 240
 1c0:	54 27       	eor	r21, r20
 1c2:	40 7f       	andi	r20, 0xF0	; 240
 1c4:	54 27       	eor	r21, r20
 1c6:	48 2b       	or	r20, r24
 1c8:	4b b9       	out	0x0b, r20	; 11
	PORTD |= (((instr >> 1) & 1) << DISP_DB1);
 1ca:	8b b1       	in	r24, 0x0b	; 11
 1cc:	61 fb       	bst	r22, 1
 1ce:	22 27       	eor	r18, r18
 1d0:	20 f9       	bld	r18, 0
 1d2:	30 e0       	ldi	r19, 0x00	; 0
 1d4:	22 0f       	add	r18, r18
 1d6:	33 1f       	adc	r19, r19
 1d8:	22 0f       	add	r18, r18
 1da:	33 1f       	adc	r19, r19
 1dc:	22 0f       	add	r18, r18
 1de:	33 1f       	adc	r19, r19
 1e0:	28 2b       	or	r18, r24
 1e2:	2b b9       	out	0x0b, r18	; 11
	PORTD |= (((instr >> 0) & 1) << DISP_DB0);
 1e4:	8b b1       	in	r24, 0x0b	; 11
 1e6:	61 70       	andi	r22, 0x01	; 1
 1e8:	77 27       	eor	r23, r23
 1ea:	66 0f       	add	r22, r22
 1ec:	77 1f       	adc	r23, r23
 1ee:	66 0f       	add	r22, r22
 1f0:	77 1f       	adc	r23, r23
 1f2:	68 2b       	or	r22, r24
 1f4:	6b b9       	out	0x0b, r22	; 11
 1f6:	8f e1       	ldi	r24, 0x1F	; 31
 1f8:	9e e4       	ldi	r25, 0x4E	; 78
 1fa:	01 97       	sbiw	r24, 0x01	; 1
 1fc:	f1 f7       	brne	.-4      	; 0x1fa <set_display+0x114>
 1fe:	00 c0       	rjmp	.+0      	; 0x200 <set_display+0x11a>
 200:	00 00       	nop
/*	_delay_us(80);
	//wait(80);
	PORTB &= ~(1 << DISP_E);
	//wait(250);
	_delay_us(250);*/
}
 202:	df 91       	pop	r29
 204:	cf 91       	pop	r28
 206:	1f 91       	pop	r17
 208:	0f 91       	pop	r16
 20a:	08 95       	ret

0000020c <clear_display>:
	
}

void clear_display()
{
	set_display(0x00, 0x01);
 20c:	61 e0       	ldi	r22, 0x01	; 1
 20e:	70 e0       	ldi	r23, 0x00	; 0
 210:	80 e0       	ldi	r24, 0x00	; 0
 212:	90 e0       	ldi	r25, 0x00	; 0
 214:	68 cf       	rjmp	.-304    	; 0xe6 <set_display>
 216:	08 95       	ret

00000218 <init_display>:
	while(a<n){a++;}
}

void init_display()
{
    DDRB |= (1 << DISP_RS);
 218:	20 9a       	sbi	0x04, 0	; 4
    DDRB |= (1 << DISP_RW);
 21a:	21 9a       	sbi	0x04, 1	; 4
    DDRB |= (1 << DISP_E);
 21c:	22 9a       	sbi	0x04, 2	; 4
    DDRC |= (1 << DISP_DB7);
 21e:	39 9a       	sbi	0x07, 1	; 7
    DDRC |= (1 << DISP_DB6);
 220:	38 9a       	sbi	0x07, 0	; 7
    DDRD |= (1 << DISP_DB5);
 222:	57 9a       	sbi	0x0a, 7	; 10
    DDRD |= (1 << DISP_DB4);
 224:	56 9a       	sbi	0x0a, 6	; 10
    DDRD |= (1 << DISP_DB3);
 226:	55 9a       	sbi	0x0a, 5	; 10
    DDRD |= (1 << DISP_DB2);
 228:	54 9a       	sbi	0x0a, 4	; 10
    DDRD |= (1 << DISP_DB1);
 22a:	53 9a       	sbi	0x0a, 3	; 10
    DDRD |= (1 << DISP_DB0);
 22c:	52 9a       	sbi	0x0a, 2	; 10
    
    PORTB &= ~(1 << DISP_E);
 22e:	2a 98       	cbi	0x05, 2	; 5
 230:	2f ef       	ldi	r18, 0xFF	; 255
 232:	89 e6       	ldi	r24, 0x69	; 105
 234:	98 e1       	ldi	r25, 0x18	; 24
 236:	21 50       	subi	r18, 0x01	; 1
 238:	80 40       	sbci	r24, 0x00	; 0
 23a:	90 40       	sbci	r25, 0x00	; 0
 23c:	e1 f7       	brne	.-8      	; 0x236 <init_display+0x1e>
 23e:	00 c0       	rjmp	.+0      	; 0x240 <init_display+0x28>
 240:	00 00       	nop
    _delay_ms(1000);
    
    // Detta borde funka, men fr√•ga mig inte varf√∂r
    set_display(0x00, 0x30);
 242:	60 e3       	ldi	r22, 0x30	; 48
 244:	70 e0       	ldi	r23, 0x00	; 0
 246:	80 e0       	ldi	r24, 0x00	; 0
 248:	90 e0       	ldi	r25, 0x00	; 0
 24a:	4d df       	rcall	.-358    	; 0xe6 <set_display>
    toggle_enable();
 24c:	3d df       	rcall	.-390    	; 0xc8 <toggle_enable>
    
    set_display(0x00, 0x30);
 24e:	60 e3       	ldi	r22, 0x30	; 48
 250:	70 e0       	ldi	r23, 0x00	; 0
 252:	80 e0       	ldi	r24, 0x00	; 0
 254:	90 e0       	ldi	r25, 0x00	; 0
 256:	47 df       	rcall	.-370    	; 0xe6 <set_display>
    toggle_enable();
 258:	37 df       	rcall	.-402    	; 0xc8 <toggle_enable>
    
    set_display(0x00, 0x30);
 25a:	60 e3       	ldi	r22, 0x30	; 48
 25c:	70 e0       	ldi	r23, 0x00	; 0
 25e:	80 e0       	ldi	r24, 0x00	; 0
 260:	90 e0       	ldi	r25, 0x00	; 0
 262:	41 df       	rcall	.-382    	; 0xe6 <set_display>
    toggle_enable();
 264:	31 df       	rcall	.-414    	; 0xc8 <toggle_enable>
    
    // Function set
    set_display(0x00, 0x38);
 266:	68 e3       	ldi	r22, 0x38	; 56
 268:	70 e0       	ldi	r23, 0x00	; 0
 26a:	80 e0       	ldi	r24, 0x00	; 0
 26c:	90 e0       	ldi	r25, 0x00	; 0
 26e:	3b df       	rcall	.-394    	; 0xe6 <set_display>
    toggle_enable();
 270:	2b df       	rcall	.-426    	; 0xc8 <toggle_enable>
    
    // Display on
    set_display(0x00, 0x0F);
 272:	6f e0       	ldi	r22, 0x0F	; 15
 274:	70 e0       	ldi	r23, 0x00	; 0
 276:	80 e0       	ldi	r24, 0x00	; 0
 278:	90 e0       	ldi	r25, 0x00	; 0
 27a:	35 df       	rcall	.-406    	; 0xe6 <set_display>
    toggle_enable();
 27c:	25 df       	rcall	.-438    	; 0xc8 <toggle_enable>
    
    // Clear display
    clear_display();
 27e:	c6 df       	rcall	.-116    	; 0x20c <clear_display>
    toggle_enable();
 280:	23 df       	rcall	.-442    	; 0xc8 <toggle_enable>
    //wait(1000);
    
    // Entry mode
    set_display(0x00, 0x06);
 282:	66 e0       	ldi	r22, 0x06	; 6
 284:	70 e0       	ldi	r23, 0x00	; 0
 286:	80 e0       	ldi	r24, 0x00	; 0
 288:	90 e0       	ldi	r25, 0x00	; 0
 28a:	2d df       	rcall	.-422    	; 0xe6 <set_display>
    //_delay_us(1000);
    toggle_enable();
 28c:	1d cf       	rjmp	.-454    	; 0xc8 <toggle_enable>
 28e:	08 95       	ret

00000290 <activateADC>:
void activateADC()
{
	uint16_t REG = 0;
	
	//Steg 1 s‰tt ADC till aktiv mode
	ss_low();
 290:	b2 d0       	rcall	.+356    	; 0x3f6 <ss_low>
	send_spi(ACTIVATE_ADC);
 292:	84 e9       	ldi	r24, 0x94	; 148
 294:	98 d0       	rcall	.+304    	; 0x3c6 <send_spi>
	REG = get_spi(0xFF);
 296:	8f ef       	ldi	r24, 0xFF	; 255
 298:	9c d0       	rcall	.+312    	; 0x3d2 <get_spi>
	ss_high();
 29a:	af d0       	rcall	.+350    	; 0x3fa <ss_high>
	#else
		//round up by default
		__ticks_dc = (uint32_t)(ceil(fabs(__tmp)));
	#endif

	__builtin_avr_delay_cycles(__ticks_dc);
 29c:	8f e8       	ldi	r24, 0x8F	; 143
 29e:	91 e0       	ldi	r25, 0x01	; 1
 2a0:	01 97       	sbiw	r24, 0x01	; 1
 2a2:	f1 f7       	brne	.-4      	; 0x2a0 <activateADC+0x10>
 2a4:	00 c0       	rjmp	.+0      	; 0x2a6 <activateADC+0x16>
 2a6:	00 00       	nop
 2a8:	08 95       	ret

000002aa <main>:
#include "UART.h"
#include "display.h"


int main(void)
{
 2aa:	cf 93       	push	r28
 2ac:	df 93       	push	r29
 2ae:	cd b7       	in	r28, 0x3d	; 61
 2b0:	de b7       	in	r29, 0x3e	; 62
 2b2:	a4 97       	sbiw	r28, 0x24	; 36
 2b4:	0f b6       	in	r0, 0x3f	; 63
 2b6:	f8 94       	cli
 2b8:	de bf       	out	0x3e, r29	; 62
 2ba:	0f be       	out	0x3f, r0	; 63
 2bc:	cd bf       	out	0x3d, r28	; 61
	uint16_t DISTANCE = 0;
	
	int ANGLE = 0;
	
	uart_message BAJS;
	sei();
 2be:	78 94       	sei
	#else
		//round up by default
		__ticks_dc = (uint32_t)(ceil(fabs(__tmp)));
	#endif

	__builtin_avr_delay_cycles(__ticks_dc);
 2c0:	8f e5       	ldi	r24, 0x5F	; 95
 2c2:	9a ee       	ldi	r25, 0xEA	; 234
 2c4:	01 97       	sbiw	r24, 0x01	; 1
 2c6:	f1 f7       	brne	.-4      	; 0x2c4 <main+0x1a>
 2c8:	00 c0       	rjmp	.+0      	; 0x2ca <main+0x20>
 2ca:	00 00       	nop
	//init_sensors();
	//setup_spi();
	//activateADC();
	
	_delay_ms(30);
	setup_spi();
 2cc:	63 d0       	rcall	.+198    	; 0x394 <setup_spi>
	activateADC();
 2ce:	e0 df       	rcall	.-64     	; 0x290 <activateADC>
	init_display();
 2d0:	a3 df       	rcall	.-186    	; 0x218 <init_display>
	init_sensors();
 2d2:	bb d1       	rcall	.+886    	; 0x64a <init_sensors>
	uart_init(0x0033);
 2d4:	83 e3       	ldi	r24, 0x33	; 51
 2d6:	90 e0       	ldi	r25, 0x00	; 0
 2d8:	92 d0       	rcall	.+292    	; 0x3fe <uart_init>
	
	BAJS = get_message();
 2da:	ce 01       	movw	r24, r28
 2dc:	01 96       	adiw	r24, 0x01	; 1
 2de:	56 d1       	rcall	.+684    	; 0x58c <get_message>

	char *name = BAJS.data[0].data;
	uint8_t len = BAJS.data[0].length;
	
	char lol[] = "TEST";
 2e0:	85 e0       	ldi	r24, 0x05	; 5
 2e2:	e0 e0       	ldi	r30, 0x00	; 0
 2e4:	f1 e0       	ldi	r31, 0x01	; 1
 2e6:	de 01       	movw	r26, r28
 2e8:	90 96       	adiw	r26, 0x20	; 32
 2ea:	01 90       	ld	r0, Z+
 2ec:	0d 92       	st	X+, r0
 2ee:	8a 95       	dec	r24
 2f0:	e1 f7       	brne	.-8      	; 0x2ea <main+0x40>
		
	
	
	int i;
	
	for (i = 0; i < 4; ++i){
 2f2:	00 e0       	ldi	r16, 0x00	; 0
 2f4:	10 e0       	ldi	r17, 0x00	; 0
 2f6:	a1 2c       	mov	r10, r1
 2f8:	b1 2c       	mov	r11, r1
 2fa:	0f 2e       	mov	r0, r31
 2fc:	f9 e1       	ldi	r31, 0x19	; 25
 2fe:	cf 2e       	mov	r12, r31
 300:	f1 e0       	ldi	r31, 0x01	; 1
 302:	df 2e       	mov	r13, r31
 304:	f0 2d       	mov	r31, r0
 306:	15 c0       	rjmp	.+42     	; 0x332 <main+0x88>
		set_display(0x00, 0x80+i);
 308:	b8 01       	movw	r22, r16
 30a:	60 58       	subi	r22, 0x80	; 128
 30c:	7f 4f       	sbci	r23, 0xFF	; 255
 30e:	8a 2d       	mov	r24, r10
 310:	9b 2d       	mov	r25, r11
 312:	e9 de       	rcall	.-558    	; 0xe6 <set_display>
		toggle_enable();
 314:	d9 de       	rcall	.-590    	; 0xc8 <toggle_enable>
	
		set_display(0x02, lol[i]);
 316:	e0 e2       	ldi	r30, 0x20	; 32
 318:	f0 e0       	ldi	r31, 0x00	; 0
 31a:	ec 0f       	add	r30, r28
 31c:	fd 1f       	adc	r31, r29
 31e:	e0 0f       	add	r30, r16
 320:	f1 1f       	adc	r31, r17
 322:	60 81       	ld	r22, Z
 324:	70 e0       	ldi	r23, 0x00	; 0
 326:	82 e0       	ldi	r24, 0x02	; 2
 328:	90 e0       	ldi	r25, 0x00	; 0
 32a:	dd de       	rcall	.-582    	; 0xe6 <set_display>
		toggle_enable();
 32c:	cd de       	rcall	.-614    	; 0xc8 <toggle_enable>
		
	
	
	int i;
	
	for (i = 0; i < 4; ++i){
 32e:	0f 5f       	subi	r16, 0xFF	; 255
 330:	1f 4f       	sbci	r17, 0xFF	; 255
 332:	04 30       	cpi	r16, 0x04	; 4
 334:	11 05       	cpc	r17, r1
 336:	44 f3       	brlt	.-48     	; 0x308 <main+0x5e>
	
		set_display(0x02, lol[i]);
		toggle_enable();
	}
	
	cli();
 338:	f8 94       	cli
	for (i = 0; i < buffer_size; ++i){
 33a:	80 91 06 01 	lds	r24, 0x0106
 33e:	88 23       	and	r24, r24
 340:	d1 f0       	breq	.+52     	; 0x376 <main+0xcc>
 342:	76 01       	movw	r14, r12
 344:	0a 2d       	mov	r16, r10
 346:	1b 2d       	mov	r17, r11
 348:	b8 01       	movw	r22, r16
 34a:	60 57       	subi	r22, 0x70	; 112
 34c:	7f 4f       	sbci	r23, 0xFF	; 255
		set_display(0x00, 0x90+i);
 34e:	8a 2d       	mov	r24, r10
 350:	9b 2d       	mov	r25, r11
 352:	c9 de       	rcall	.-622    	; 0xe6 <set_display>
		toggle_enable();
 354:	b9 de       	rcall	.-654    	; 0xc8 <toggle_enable>
	
		set_display(0x02, buffer[i]);
 356:	f7 01       	movw	r30, r14
 358:	61 91       	ld	r22, Z+
 35a:	7f 01       	movw	r14, r30
 35c:	70 e0       	ldi	r23, 0x00	; 0
 35e:	82 e0       	ldi	r24, 0x02	; 2
 360:	90 e0       	ldi	r25, 0x00	; 0
 362:	c1 de       	rcall	.-638    	; 0xe6 <set_display>
		toggle_enable();
 364:	b1 de       	rcall	.-670    	; 0xc8 <toggle_enable>
		set_display(0x02, lol[i]);
		toggle_enable();
	}
	
	cli();
	for (i = 0; i < buffer_size; ++i){
 366:	0f 5f       	subi	r16, 0xFF	; 255
 368:	1f 4f       	sbci	r17, 0xFF	; 255
 36a:	20 91 06 01 	lds	r18, 0x0106
 36e:	30 e0       	ldi	r19, 0x00	; 0
 370:	02 17       	cp	r16, r18
 372:	13 07       	cpc	r17, r19
 374:	4c f3       	brlt	.-46     	; 0x348 <main+0x9e>
		toggle_enable();
	
		set_display(0x02, buffer[i]);
		toggle_enable();
	}
	sei();
 376:	78 94       	sei
 378:	ff ef       	ldi	r31, 0xFF	; 255
 37a:	29 e6       	ldi	r18, 0x69	; 105
 37c:	88 e1       	ldi	r24, 0x18	; 24
 37e:	f1 50       	subi	r31, 0x01	; 1
 380:	20 40       	sbci	r18, 0x00	; 0
 382:	80 40       	sbci	r24, 0x00	; 0
 384:	e1 f7       	brne	.-8      	; 0x37e <main+0xd4>
 386:	00 c0       	rjmp	.+0      	; 0x388 <main+0xde>
 388:	00 00       	nop
	_delay_ms(1000);
	
	clear_display();
 38a:	40 df       	rcall	.-384    	; 0x20c <clear_display>
	toggle_enable();
 38c:	9d de       	rcall	.-710    	; 0xc8 <toggle_enable>
		
	
	
	int i;
	
	for (i = 0; i < 4; ++i){
 38e:	0a 2d       	mov	r16, r10
 390:	1b 2d       	mov	r17, r11
			////Skicka till styrmodulen att den har roterat klart!
		//}
		
	

	}
 392:	cf cf       	rjmp	.-98     	; 0x332 <main+0x88>

00000394 <setup_spi>:
	DDRB |= (1 << SPI_SCLK); // output
}

void disable_spi()
{
	SPCR = 0x00;
 394:	8c b5       	in	r24, 0x2c	; 44
 396:	80 61       	ori	r24, 0x10	; 16
 398:	8c bd       	out	0x2c, r24	; 44
 39a:	8c b5       	in	r24, 0x2c	; 44
 39c:	80 64       	ori	r24, 0x40	; 64
 39e:	8c bd       	out	0x2c, r24	; 44
 3a0:	8c b5       	in	r24, 0x2c	; 44
 3a2:	8c bd       	out	0x2c, r24	; 44
 3a4:	8c b5       	in	r24, 0x2c	; 44
 3a6:	88 60       	ori	r24, 0x08	; 8
 3a8:	8c bd       	out	0x2c, r24	; 44
 3aa:	8c b5       	in	r24, 0x2c	; 44
 3ac:	84 60       	ori	r24, 0x04	; 4
 3ae:	8c bd       	out	0x2c, r24	; 44
 3b0:	8c b5       	in	r24, 0x2c	; 44
 3b2:	81 60       	ori	r24, 0x01	; 1
 3b4:	8c bd       	out	0x2c, r24	; 44
 3b6:	8c b5       	in	r24, 0x2c	; 44
 3b8:	82 60       	ori	r24, 0x02	; 2
 3ba:	8c bd       	out	0x2c, r24	; 44
 3bc:	25 9a       	sbi	0x04, 5	; 4
 3be:	26 98       	cbi	0x04, 6	; 4
 3c0:	24 9a       	sbi	0x04, 4	; 4
 3c2:	27 9a       	sbi	0x04, 7	; 4
 3c4:	08 95       	ret

000003c6 <send_spi>:
}

uint8_t send_spi(uint8_t out)
{
	SPDR = out;
 3c6:	8e bd       	out	0x2e, r24	; 46
	while (!(SPSR & (1<<SPIF))); //Loopar sÂl‰nge vi inte har skickat klart
 3c8:	0d b4       	in	r0, 0x2d	; 45
 3ca:	07 fe       	sbrs	r0, 7
 3cc:	fd cf       	rjmp	.-6      	; 0x3c8 <send_spi+0x2>
	return SPDR;
 3ce:	8e b5       	in	r24, 0x2e	; 46
}
 3d0:	08 95       	ret

000003d2 <get_spi>:


uint16_t get_spi(uint8_t data)
{
 3d2:	1f 93       	push	r17
 3d4:	cf 93       	push	r28
 3d6:	df 93       	push	r29
 3d8:	18 2f       	mov	r17, r24
	uint16_t REG = 0;
	uint16_t REG1 = 0;
	uint16_t REG2 = 0;
	
	REG1 = send_spi(data);
 3da:	f5 df       	rcall	.-22     	; 0x3c6 <send_spi>
 3dc:	c8 2f       	mov	r28, r24
 3de:	d0 e0       	ldi	r29, 0x00	; 0
	REG1 = REG1 << 8;
	REG2 = send_spi(data);
 3e0:	81 2f       	mov	r24, r17
 3e2:	f1 df       	rcall	.-30     	; 0x3c6 <send_spi>
	uint16_t REG = 0;
	uint16_t REG1 = 0;
	uint16_t REG2 = 0;
	
	REG1 = send_spi(data);
	REG1 = REG1 << 8;
 3e4:	dc 2f       	mov	r29, r28
 3e6:	cc 27       	eor	r28, r28
	REG2 = send_spi(data);
	REG = REG1 | REG2;
	
	return REG;
}
 3e8:	9e 01       	movw	r18, r28
 3ea:	28 2b       	or	r18, r24
 3ec:	c9 01       	movw	r24, r18
 3ee:	df 91       	pop	r29
 3f0:	cf 91       	pop	r28
 3f2:	1f 91       	pop	r17
 3f4:	08 95       	ret

000003f6 <ss_low>:

void ss_low()
{
	PORTB &= ~(1 << SPI_SS);
 3f6:	2c 98       	cbi	0x05, 4	; 5
 3f8:	08 95       	ret

000003fa <ss_high>:
}	

void ss_high()
{
	PORTB |= (1 << SPI_SS);
 3fa:	2c 9a       	sbi	0x05, 4	; 5
 3fc:	08 95       	ret

000003fe <uart_init>:
	//while(!bit_is_set(UCSR0A, TXC0));
}*/

uint8_t got_message(){
	return buffer_size;
}
 3fe:	90 93 c5 00 	sts	0x00C5, r25
 402:	80 93 c4 00 	sts	0x00C4, r24
 406:	e1 ec       	ldi	r30, 0xC1	; 193
 408:	f0 e0       	ldi	r31, 0x00	; 0
 40a:	80 81       	ld	r24, Z
 40c:	80 61       	ori	r24, 0x10	; 16
 40e:	80 83       	st	Z, r24
 410:	80 81       	ld	r24, Z
 412:	88 60       	ori	r24, 0x08	; 8
 414:	80 83       	st	Z, r24
 416:	80 81       	ld	r24, Z
 418:	80 68       	ori	r24, 0x80	; 128
 41a:	80 83       	st	Z, r24
 41c:	86 e0       	ldi	r24, 0x06	; 6
 41e:	80 93 c2 00 	sts	0x00C2, r24
 422:	08 95       	ret

00000424 <uart_read_char>:
 424:	e0 ec       	ldi	r30, 0xC0	; 192
 426:	f0 e0       	ldi	r31, 0x00	; 0
 428:	80 81       	ld	r24, Z
 42a:	88 23       	and	r24, r24
 42c:	ec f7       	brge	.-6      	; 0x428 <uart_read_char+0x4>
 42e:	80 91 c6 00 	lds	r24, 0x00C6
 432:	08 95       	ret

00000434 <uart_read_string>:
 434:	cf 92       	push	r12
 436:	df 92       	push	r13
 438:	ef 92       	push	r14
 43a:	ff 92       	push	r15
 43c:	0f 93       	push	r16
 43e:	1f 93       	push	r17
 440:	cf 93       	push	r28
 442:	df 93       	push	r29
 444:	8c 01       	movw	r16, r24
 446:	7b 01       	movw	r14, r22
 448:	81 e0       	ldi	r24, 0x01	; 1
 44a:	e8 1a       	sub	r14, r24
 44c:	f1 08       	sbc	r15, r1
 44e:	1e 14       	cp	r1, r14
 450:	1f 04       	cpc	r1, r15
 452:	f4 f4       	brge	.+60     	; 0x490 <uart_read_string+0x5c>
 454:	c0 e0       	ldi	r28, 0x00	; 0
 456:	d0 e0       	ldi	r29, 0x00	; 0
 458:	d1 2c       	mov	r13, r1
 45a:	c1 2c       	mov	r12, r1
 45c:	e3 df       	rcall	.-58     	; 0x424 <uart_read_char>
 45e:	8b 33       	cpi	r24, 0x3B	; 59
 460:	29 f4       	brne	.+10     	; 0x46c <uart_read_string+0x38>
 462:	f8 01       	movw	r30, r16
 464:	ed 0d       	add	r30, r13
 466:	f1 1d       	adc	r31, r1
 468:	80 83       	st	Z, r24
 46a:	15 c0       	rjmp	.+42     	; 0x496 <uart_read_string+0x62>
 46c:	83 32       	cpi	r24, 0x23	; 35
 46e:	11 f0       	breq	.+4      	; 0x474 <uart_read_string+0x40>
 470:	9d 2d       	mov	r25, r13
 472:	01 c0       	rjmp	.+2      	; 0x476 <uart_read_string+0x42>
 474:	9c 2d       	mov	r25, r12
 476:	dd 24       	eor	r13, r13
 478:	d3 94       	inc	r13
 47a:	d9 0e       	add	r13, r25
 47c:	f8 01       	movw	r30, r16
 47e:	e9 0f       	add	r30, r25
 480:	f1 1d       	adc	r31, r1
 482:	80 83       	st	Z, r24
 484:	cd 2d       	mov	r28, r13
 486:	d0 e0       	ldi	r29, 0x00	; 0
 488:	ce 15       	cp	r28, r14
 48a:	df 05       	cpc	r29, r15
 48c:	3c f3       	brlt	.-50     	; 0x45c <uart_read_string+0x28>
 48e:	03 c0       	rjmp	.+6      	; 0x496 <uart_read_string+0x62>
 490:	c0 e0       	ldi	r28, 0x00	; 0
 492:	d0 e0       	ldi	r29, 0x00	; 0
 494:	d1 2c       	mov	r13, r1
 496:	f8 01       	movw	r30, r16
 498:	ed 0d       	add	r30, r13
 49a:	f1 1d       	adc	r31, r1
 49c:	11 82       	std	Z+1, r1	; 0x01
 49e:	ce 01       	movw	r24, r28
 4a0:	01 96       	adiw	r24, 0x01	; 1
 4a2:	df 91       	pop	r29
 4a4:	cf 91       	pop	r28
 4a6:	1f 91       	pop	r17
 4a8:	0f 91       	pop	r16
 4aa:	ff 90       	pop	r15
 4ac:	ef 90       	pop	r14
 4ae:	df 90       	pop	r13
 4b0:	cf 90       	pop	r12
 4b2:	08 95       	ret

000004b4 <check_rx>:
 4b4:	80 91 c0 00 	lds	r24, 0x00C0
 4b8:	88 23       	and	r24, r24
 4ba:	3c f4       	brge	.+14     	; 0x4ca <check_rx+0x16>
 4bc:	6f ef       	ldi	r22, 0xFF	; 255
 4be:	70 e0       	ldi	r23, 0x00	; 0
 4c0:	89 e1       	ldi	r24, 0x19	; 25
 4c2:	91 e0       	ldi	r25, 0x01	; 1
 4c4:	b7 df       	rcall	.-146    	; 0x434 <uart_read_string>
 4c6:	80 93 06 01 	sts	0x0106, r24
 4ca:	08 95       	ret

000004cc <__vector_20>:
 4cc:	1f 92       	push	r1
 4ce:	0f 92       	push	r0
 4d0:	0f b6       	in	r0, 0x3f	; 63
 4d2:	0f 92       	push	r0
 4d4:	11 24       	eor	r1, r1
 4d6:	0b b6       	in	r0, 0x3b	; 59
 4d8:	0f 92       	push	r0
 4da:	2f 93       	push	r18
 4dc:	3f 93       	push	r19
 4de:	4f 93       	push	r20
 4e0:	5f 93       	push	r21
 4e2:	6f 93       	push	r22
 4e4:	7f 93       	push	r23
 4e6:	8f 93       	push	r24
 4e8:	9f 93       	push	r25
 4ea:	af 93       	push	r26
 4ec:	bf 93       	push	r27
 4ee:	ef 93       	push	r30
 4f0:	ff 93       	push	r31
 4f2:	f8 94       	cli
 4f4:	df df       	rcall	.-66     	; 0x4b4 <check_rx>
 4f6:	78 94       	sei
 4f8:	ff 91       	pop	r31
 4fa:	ef 91       	pop	r30
 4fc:	bf 91       	pop	r27
 4fe:	af 91       	pop	r26
 500:	9f 91       	pop	r25
 502:	8f 91       	pop	r24
 504:	7f 91       	pop	r23
 506:	6f 91       	pop	r22
 508:	5f 91       	pop	r21
 50a:	4f 91       	pop	r20
 50c:	3f 91       	pop	r19
 50e:	2f 91       	pop	r18
 510:	0f 90       	pop	r0
 512:	0b be       	out	0x3b, r0	; 59
 514:	0f 90       	pop	r0
 516:	0f be       	out	0x3f, r0	; 63
 518:	0f 90       	pop	r0
 51a:	1f 90       	pop	r1
 51c:	18 95       	reti

0000051e <create_attribute>:

attribute create_attribute(char *string, int start, int end){
 51e:	ff 92       	push	r15
 520:	0f 93       	push	r16
 522:	1f 93       	push	r17
 524:	cf 93       	push	r28
 526:	df 93       	push	r29
 528:	cd b7       	in	r28, 0x3d	; 61
 52a:	de b7       	in	r29, 0x3e	; 62
	
	attribute attr;
	attr.data = str;
	attr.length = end-start-1;
	return attr;
}
 52c:	0d b7       	in	r16, 0x3d	; 61
 52e:	1e b7       	in	r17, 0x3e	; 62
uint8_t got_message(){
	return buffer_size;
}

attribute create_attribute(char *string, int start, int end){
	char str[end-start];
 530:	9a 01       	movw	r18, r20
 532:	26 1b       	sub	r18, r22
 534:	37 0b       	sbc	r19, r23
 536:	ed b7       	in	r30, 0x3d	; 61
 538:	fe b7       	in	r31, 0x3e	; 62
 53a:	e2 1b       	sub	r30, r18
 53c:	f3 0b       	sbc	r31, r19
 53e:	0f b6       	in	r0, 0x3f	; 63
 540:	f8 94       	cli
 542:	fe bf       	out	0x3e, r31	; 62
 544:	0f be       	out	0x3f, r0	; 63
 546:	ed bf       	out	0x3d, r30	; 61
 548:	2d b7       	in	r18, 0x3d	; 61
 54a:	3e b7       	in	r19, 0x3e	; 62
 54c:	2f 5f       	subi	r18, 0xFF	; 255
 54e:	3f 4f       	sbci	r19, 0xFF	; 255
	int i;
	for(i = start; i < end; ++i){
 550:	64 17       	cp	r22, r20
 552:	75 07       	cpc	r23, r21
 554:	5c f4       	brge	.+22     	; 0x56c <create_attribute+0x4e>
 556:	fc 01       	movw	r30, r24
 558:	e6 0f       	add	r30, r22
 55a:	f7 1f       	adc	r31, r23
 55c:	d9 01       	movw	r26, r18
 55e:	84 0f       	add	r24, r20
 560:	95 1f       	adc	r25, r21
		str[i-start] = string[i];
 562:	f1 90       	ld	r15, Z+
 564:	fd 92       	st	X+, r15
}

attribute create_attribute(char *string, int start, int end){
	char str[end-start];
	int i;
	for(i = start; i < end; ++i){
 566:	e8 17       	cp	r30, r24
 568:	f9 07       	cpc	r31, r25
 56a:	d9 f7       	brne	.-10     	; 0x562 <create_attribute+0x44>
		str[i-start] = string[i];
	}
	
	attribute attr;
	attr.data = str;
	attr.length = end-start-1;
 56c:	84 2f       	mov	r24, r20
 56e:	86 1b       	sub	r24, r22
	return attr;
}
 570:	62 2f       	mov	r22, r18
 572:	73 2f       	mov	r23, r19
 574:	81 50       	subi	r24, 0x01	; 1
 576:	0f b6       	in	r0, 0x3f	; 63
 578:	f8 94       	cli
 57a:	1e bf       	out	0x3e, r17	; 62
 57c:	0f be       	out	0x3f, r0	; 63
 57e:	0d bf       	out	0x3d, r16	; 61
 580:	df 91       	pop	r29
 582:	cf 91       	pop	r28
 584:	1f 91       	pop	r17
 586:	0f 91       	pop	r16
 588:	ff 90       	pop	r15
 58a:	08 95       	ret

0000058c <get_message>:

// DISABLE INTERRUPT?!
uart_message get_message(){
 58c:	9f 92       	push	r9
 58e:	af 92       	push	r10
 590:	bf 92       	push	r11
 592:	cf 92       	push	r12
 594:	df 92       	push	r13
 596:	ef 92       	push	r14
 598:	ff 92       	push	r15
 59a:	0f 93       	push	r16
 59c:	1f 93       	push	r17
 59e:	cf 93       	push	r28
 5a0:	df 93       	push	r29
 5a2:	7c 01       	movw	r14, r24
	//uart_send_char(~checksum);
	//while(!bit_is_set(UCSR0A, TXC0));
}*/

uint8_t got_message(){
	return buffer_size;
 5a4:	80 91 06 01 	lds	r24, 0x0106

// DISABLE INTERRUPT?!
uart_message get_message(){
	uart_message message;
	message.length = 0;
	if(got_message() && buffer[0] == '#'){
 5a8:	88 23       	and	r24, r24
 5aa:	09 f4       	brne	.+2      	; 0x5ae <get_message+0x22>
 5ac:	3f c0       	rjmp	.+126    	; 0x62c <get_message+0xa0>
 5ae:	90 91 19 01 	lds	r25, 0x0119
 5b2:	93 32       	cpi	r25, 0x23	; 35
 5b4:	d9 f5       	brne	.+118    	; 0x62c <get_message+0xa0>
		//#COMMAND:ATTR1:ATTRN;	
		int i;
		int start = 1;
		for(i = start; i < buffer_size && buffer[i-1] != ';'; ++i){
 5b6:	90 e0       	ldi	r25, 0x00	; 0
 5b8:	02 97       	sbiw	r24, 0x02	; 2
 5ba:	94 f1       	brlt	.+100    	; 0x620 <get_message+0x94>
 5bc:	ca e1       	ldi	r28, 0x1A	; 26
 5be:	d1 e0       	ldi	r29, 0x01	; 1
 5c0:	a1 2c       	mov	r10, r1
 5c2:	61 e0       	ldi	r22, 0x01	; 1
 5c4:	70 e0       	ldi	r23, 0x00	; 0
 5c6:	01 e0       	ldi	r16, 0x01	; 1
 5c8:	10 e0       	ldi	r17, 0x00	; 0
 5ca:	6e 01       	movw	r12, r28
			if(buffer[i] == ':' || buffer[i] == ';'){
 5cc:	98 81       	ld	r25, Y
 5ce:	9a 53       	subi	r25, 0x3A	; 58
 5d0:	92 30       	cpi	r25, 0x02	; 2
 5d2:	c0 f4       	brcc	.+48     	; 0x604 <get_message+0x78>
				message.data[message.length++] = create_attribute(buffer, start, i);
 5d4:	99 24       	eor	r9, r9
 5d6:	93 94       	inc	r9
 5d8:	9a 0c       	add	r9, r10
 5da:	8a 2d       	mov	r24, r10
 5dc:	90 e0       	ldi	r25, 0x00	; 0
 5de:	5c 01       	movw	r10, r24
 5e0:	aa 0c       	add	r10, r10
 5e2:	bb 1c       	adc	r11, r11
 5e4:	a8 0e       	add	r10, r24
 5e6:	b9 1e       	adc	r11, r25
 5e8:	ae 0c       	add	r10, r14
 5ea:	bf 1c       	adc	r11, r15
 5ec:	a8 01       	movw	r20, r16
 5ee:	89 e1       	ldi	r24, 0x19	; 25
 5f0:	91 e0       	ldi	r25, 0x01	; 1
 5f2:	95 df       	rcall	.-214    	; 0x51e <create_attribute>
 5f4:	f5 01       	movw	r30, r10
 5f6:	60 83       	st	Z, r22
 5f8:	71 83       	std	Z+1, r23	; 0x01
 5fa:	82 83       	std	Z+2, r24	; 0x02
 5fc:	b8 01       	movw	r22, r16
 5fe:	6f 5f       	subi	r22, 0xFF	; 255
 600:	7f 4f       	sbci	r23, 0xFF	; 255
 602:	a9 2c       	mov	r10, r9
	message.length = 0;
	if(got_message() && buffer[0] == '#'){
		//#COMMAND:ATTR1:ATTRN;	
		int i;
		int start = 1;
		for(i = start; i < buffer_size && buffer[i-1] != ';'; ++i){
 604:	0f 5f       	subi	r16, 0xFF	; 255
 606:	1f 4f       	sbci	r17, 0xFF	; 255
 608:	80 91 06 01 	lds	r24, 0x0106
 60c:	90 e0       	ldi	r25, 0x00	; 0
 60e:	08 17       	cp	r16, r24
 610:	19 07       	cpc	r17, r25
 612:	3c f4       	brge	.+14     	; 0x622 <get_message+0x96>
 614:	21 96       	adiw	r28, 0x01	; 1
 616:	f6 01       	movw	r30, r12
 618:	90 81       	ld	r25, Z
 61a:	9b 33       	cpi	r25, 0x3B	; 59
 61c:	b1 f6       	brne	.-84     	; 0x5ca <get_message+0x3e>
 61e:	01 c0       	rjmp	.+2      	; 0x622 <get_message+0x96>
 620:	a1 2c       	mov	r10, r1
			if(buffer[i] == ':' || buffer[i] == ';'){
				message.data[message.length++] = create_attribute(buffer, start, i);
				start = i+1;
			}
		}
		buffer_size = 0;
 622:	10 92 06 01 	sts	0x0106, r1
		return message;
 626:	f7 01       	movw	r30, r14
 628:	a6 8e       	std	Z+30, r10	; 0x1e
 62a:	02 c0       	rjmp	.+4      	; 0x630 <get_message+0xa4>
	}
	return message;
 62c:	f7 01       	movw	r30, r14
 62e:	16 8e       	std	Z+30, r1	; 0x1e
}
 630:	c7 01       	movw	r24, r14
 632:	df 91       	pop	r29
 634:	cf 91       	pop	r28
 636:	1f 91       	pop	r17
 638:	0f 91       	pop	r16
 63a:	ff 90       	pop	r15
 63c:	ef 90       	pop	r14
 63e:	df 90       	pop	r13
 640:	cf 90       	pop	r12
 642:	bf 90       	pop	r11
 644:	af 90       	pop	r10
 646:	9f 90       	pop	r9
 648:	08 95       	ret

0000064a <init_sensors>:

void init_sensors()
{
	
	//S‰tt PA0, A2, A3, A4 till ut
	DDRA |= (1 << PORTA4);
 64a:	0c 9a       	sbi	0x01, 4	; 1
	DDRA |= (1 << PORTA3);
 64c:	0b 9a       	sbi	0x01, 3	; 1
	DDRA |= (1 << PORTA2);
 64e:	0a 9a       	sbi	0x01, 2	; 1
	DDRA |= (1 << PORTA0);
 650:	08 9a       	sbi	0x01, 0	; 1

	//S‰tt PA1 till in	
	DDRA &= ~(1 << PORTA1);
 652:	09 98       	cbi	0x01, 1	; 1
	
	//B0 till ut
	DDRB |= (1 << PORTB0);
 654:	20 9a       	sbi	0x04, 0	; 4
	
	sensor_list[0] = (struct soundSensor) {0b00000000, 0};
 656:	10 92 07 01 	sts	0x0107, r1
 65a:	10 92 09 01 	sts	0x0109, r1
 65e:	10 92 08 01 	sts	0x0108, r1
	sensor_list[1] = (struct soundSensor) {0b00000100, 0};
 662:	84 e0       	ldi	r24, 0x04	; 4
 664:	80 93 0a 01 	sts	0x010A, r24
 668:	10 92 0c 01 	sts	0x010C, r1
 66c:	10 92 0b 01 	sts	0x010B, r1
	sensor_list[2] = (struct soundSensor) {0b00001000, 0};
 670:	88 e0       	ldi	r24, 0x08	; 8
 672:	80 93 0d 01 	sts	0x010D, r24
 676:	10 92 0f 01 	sts	0x010F, r1
 67a:	10 92 0e 01 	sts	0x010E, r1
	sensor_list[3] = (struct soundSensor) {0b00001100, 0};
 67e:	8c e0       	ldi	r24, 0x0C	; 12
 680:	80 93 10 01 	sts	0x0110, r24
 684:	10 92 12 01 	sts	0x0112, r1
 688:	10 92 11 01 	sts	0x0111, r1
	sensor_list[4] = (struct soundSensor) {0b00010000, 0};
 68c:	80 e1       	ldi	r24, 0x10	; 16
 68e:	80 93 13 01 	sts	0x0113, r24
 692:	10 92 15 01 	sts	0x0115, r1
 696:	10 92 14 01 	sts	0x0114, r1
	sensor_list[5] = (struct soundSensor) {0b00010100, 0};
 69a:	84 e1       	ldi	r24, 0x14	; 20
 69c:	80 93 16 01 	sts	0x0116, r24
 6a0:	10 92 18 01 	sts	0x0118, r1
 6a4:	10 92 17 01 	sts	0x0117, r1
 6a8:	08 95       	ret

000006aa <_exit>:
 6aa:	f8 94       	cli

000006ac <__stop_program>:
 6ac:	ff cf       	rjmp	.-2      	; 0x6ac <__stop_program>
